target datalayout = "e-m:e-p270:32:32-p271:32:32-p272:64:64-i64:64-i128:128-f80:128-n8:16:32:64-S128"
target triple = "x86_64-pc-linux-gnu"

%struct.cli_bc_ctx = type { i8, i16, i32, ptr, ptr, i32, i32, ptr, ptr, ptr, i32, i32, i64, ptr, ptr, ptr, %struct.cli_bc_hooks, %struct.cli_exe_info, [64 x i32], [64 x i32], i32, ptr, ptr, i32, i32, i32, i32, ptr, i32, ptr, ptr, i32, i32, i32, i32, i32, i32, ptr, ptr, ptr, ptr, ptr, ptr, ptr, i32, i32, i32, i32, ptr, ptr, ptr, ptr, ptr, i32, i32, i32, i32, ptr, ptr, ptr, ptr, i32, i32, i32, ptr, i32, ptr, i32, i32, ptr, i32 }
%struct.cli_bc_hooks = type { ptr, ptr, ptr, ptr, ptr }
%struct.cli_exe_info = type { ptr, i32, i32, i16, i32, i32, %struct.cli_hashset, i32, i32, i32, i32, i32, i32, i32, i32, i32, %struct.pe_image_file_hdr, %union.anon, [16 x %struct.pe_image_data_dir] }
%struct.cli_hashset = type { ptr, ptr, ptr, i32, i32, i32, i32 }
%struct.pe_image_file_hdr = type { i32, i16, i16, i32, i32, i32, i16, i16 }
%union.anon = type { %struct.pe_image_optional_hdr64 }
%struct.pe_image_optional_hdr64 = type { i16, i8, i8, i32, i32, i32, i32, i32, i64, i32, i32, i16, i16, i16, i16, i16, i16, i32, i32, i32, i32, i16, i16, i64, i64, i64, i64, i32, i32 }
%struct.pe_image_data_dir = type { i32, i32 }
%struct.cli_map = type { %struct.cli_hashtable, %union.anon.0, i32, i32, i32, i32, i32 }
%struct.cli_hashtable = type { ptr, i64, i64, i64 }
%union.anon.0 = type { ptr }

; Function Attrs: nounwind uwtable
define i32 @cli_bcapi_map_new(ptr noundef %0, i32 noundef %1, i32 noundef %2) #0 {
  %4 = alloca i32, align 4
  %5 = alloca ptr, align 8
  %6 = alloca i32, align 4
  %7 = alloca i32, align 4
  %8 = alloca i32, align 4
  %9 = alloca ptr, align 8
  store ptr %0, ptr %5, align 8
  store i32 %1, ptr %6, align 4
  store i32 %2, ptr %7, align 4
  %10 = load ptr, ptr %5, align 8
  %11 = getelementptr inbounds %struct.cli_bc_ctx, ptr %10, i32 0, i32 61
  %12 = load i32, ptr %11, align 8
  %13 = add i32 %12, 1
  store i32 %13, ptr %8, align 4
  %14 = load i32, ptr %6, align 4
  %15 = icmp ne i32 %14, 0
  br i1 %15, label %17, label %16

16:                                               ; preds = %3
  store i32 -1, ptr %4, align 4
  br label %46

17:                                               ; preds = %3
  %18 = load ptr, ptr %5, align 8
  %19 = getelementptr inbounds %struct.cli_bc_ctx, ptr %18, i32 0, i32 60
  %20 = load ptr, ptr %19, align 8
  %21 = load i32, ptr %8, align 4
  %22 = zext i32 %21 to i64
  %23 = mul i64 64, %22
  %24 = call ptr @cli_max_realloc(ptr noundef %20, i64 noundef %23)
  store ptr %24, ptr %9, align 8
  %25 = load ptr, ptr %9, align 8
  %26 = icmp ne ptr %25, null
  br i1 %26, label %28, label %27

27:                                               ; preds = %17
  store i32 -1, ptr %4, align 4
  br label %46

28:                                               ; preds = %17
  %29 = load ptr, ptr %9, align 8
  %30 = load ptr, ptr %5, align 8
  %31 = getelementptr inbounds %struct.cli_bc_ctx, ptr %30, i32 0, i32 60
  store ptr %29, ptr %31, align 8
  %32 = load i32, ptr %8, align 4
  %33 = load ptr, ptr %5, align 8
  %34 = getelementptr inbounds %struct.cli_bc_ctx, ptr %33, i32 0, i32 61
  store i32 %32, ptr %34, align 8
  %35 = load ptr, ptr %9, align 8
  %36 = load i32, ptr %8, align 4
  %37 = sub i32 %36, 1
  %38 = zext i32 %37 to i64
  %39 = getelementptr inbounds %struct.cli_map, ptr %35, i64 %38
  store ptr %39, ptr %9, align 8
  %40 = load ptr, ptr %9, align 8
  %41 = load i32, ptr %6, align 4
  %42 = load i32, ptr %7, align 4
  %43 = call i32 @cli_map_init(ptr noundef %40, i32 noundef %41, i32 noundef %42, i32 noundef 16)
  %44 = load i32, ptr %8, align 4
  %45 = sub i32 %44, 1
  store i32 %45, ptr %4, align 4
  br label %46

46:                                               ; preds = %28, %27, %16
  %47 = load i32, ptr %4, align 4
  ret i32 %47
}