; Function Attrs: nounwind uwtable
define i32 @cli_bcapi_map_new(ptr nocapture noundef %0, i32 noundef %1, i32 noundef %2) local_unnamed_addr #1 {
  %4 = getelementptr inbounds i8, ptr %0, i64 1280
  %5 = load i32, ptr %4, align 8
  %6 = add i32 %5, 1
  %.not = icmp eq i32 %1, 0
  br i1 %.not, label %17, label %7

7:                                                ; preds = %3
  %8 = getelementptr inbounds i8, ptr %0, i64 1272
  %9 = load ptr, ptr %8, align 8
  %10 = zext i32 %6 to i64
  %11 = shl nuw nsw i64 %10, 6
  %12 = tail call ptr @cli_max_realloc(ptr noundef %9, i64 noundef %11) #29
  %.not17 = icmp eq ptr %12, null
  br i1 %.not17, label %17, label %13

13:                                               ; preds = %7
  store ptr %12, ptr %8, align 8
  store i32 %6, ptr %4, align 8
  %14 = zext i32 %5 to i64
  %15 = getelementptr inbounds %struct.cli_map, ptr %12, i64 %14
  %16 = tail call i32 @cli_map_init(ptr noundef nonnull %15, i32 noundef %1, i32 noundef %2, i32 noundef 16) #29
  br label %17

17:                                               ; preds = %7, %3, %13
  %.0 = phi i32 [ %5, %13 ], [ -1, %3 ], [ -1, %7 ]
  ret i32 %.0
}